target datalayout = "e-m:e-p270:32:32-p271:32:32-p272:64:64-i64:64-i128:128-f80:128-n8:16:32:64-S128"
target triple = "x86_64-pc-linux-gnu"

%"class.gmx::TextLineWrapperSettings" = type <{ i32, i32, i32, i8, i8, [2 x i8] }>
%"class.gmx::TextLineWrapper" = type { %"class.gmx::TextLineWrapperSettings" }

@.str.6 = private unnamed_addr constant [2 x i8] c" \00", align 1
@.str.7 = private unnamed_addr constant [3 x i8] c" \0A\00", align 1

; Function Attrs: mustprogress nounwind uwtable
define linkonce_odr noundef nonnull align 8 dereferenceable(8) ptr @_ZSt3minImERKT_S2_S2_(ptr noundef nonnull align 8 dereferenceable(8) %0, ptr noundef nonnull align 8 dereferenceable(8) %1) #0 comdat {
  %3 = alloca ptr, align 8
  %4 = alloca ptr, align 8
  %5 = alloca ptr, align 8
  store ptr %0, ptr %4, align 8
  store ptr %1, ptr %5, align 8
  %6 = load ptr, ptr %5, align 8
  %7 = load i64, ptr %6, align 8
  %8 = load ptr, ptr %4, align 8
  %9 = load i64, ptr %8, align 8
  %10 = icmp ult i64 %7, %9
  br i1 %10, label %11, label %13

11:                                               ; preds = %2
  %12 = load ptr, ptr %5, align 8
  store ptr %12, ptr %3, align 8
  br label %15

13:                                               ; preds = %2
  %14 = load ptr, ptr %4, align 8
  store ptr %14, ptr %3, align 8
  br label %15

15:                                               ; preds = %13, %11
  %16 = load ptr, ptr %3, align 8
  ret ptr %16
}

; Function Attrs: mustprogress nounwind uwtable
define linkonce_odr noundef i32 @_ZNK3gmx23TextLineWrapperSettings10lineLengthEv(ptr noundef nonnull align 4 dereferenceable(14) %0) #0 comdat align 2 {
  %2 = alloca ptr, align 8
  store ptr %0, ptr %2, align 8
  %3 = load ptr, ptr %2, align 8
  %4 = getelementptr inbounds %"class.gmx::TextLineWrapperSettings", ptr %3, i32 0, i32 0
  %5 = load i32, ptr %4, align 4
  ret i32 %5
}

; Function Attrs: mustprogress nounwind uwtable
define linkonce_odr noundef i32 @_ZNK3gmx23TextLineWrapperSettings6indentEv(ptr noundef nonnull align 4 dereferenceable(14) %0) #0 comdat align 2 {
  %2 = alloca ptr, align 8
  store ptr %0, ptr %2, align 8
  %3 = load ptr, ptr %2, align 8
  %4 = getelementptr inbounds %"class.gmx::TextLineWrapperSettings", ptr %3, i32 0, i32 1
  %5 = load i32, ptr %4, align 4
  ret i32 %5
}

; Function Attrs: mustprogress nounwind uwtable
define linkonce_odr noundef i32 @_ZNK3gmx23TextLineWrapperSettings15firstLineIndentEv(ptr noundef nonnull align 4 dereferenceable(14) %0) #0 comdat align 2 {
  %2 = alloca ptr, align 8
  store ptr %0, ptr %2, align 8
  %3 = load ptr, ptr %2, align 8
  %4 = getelementptr inbounds %"class.gmx::TextLineWrapperSettings", ptr %3, i32 0, i32 2
  %5 = load i32, ptr %4, align 4
  %6 = icmp sge i32 %5, 0
  br i1 %6, label %7, label %10

7:                                                ; preds = %1
  %8 = getelementptr inbounds %"class.gmx::TextLineWrapperSettings", ptr %3, i32 0, i32 2
  %9 = load i32, ptr %8, align 4
  br label %13

10:                                               ; preds = %1
  %11 = getelementptr inbounds %"class.gmx::TextLineWrapperSettings", ptr %3, i32 0, i32 1
  %12 = load i32, ptr %11, align 4
  br label %13

13:                                               ; preds = %10, %7
  %14 = phi i32 [ %9, %7 ], [ %12, %10 ]
  ret i32 %14
}

; Function Attrs: mustprogress uwtable
define noundef i64 @_ZNK3gmx15TextLineWrapper12findNextLineEPKcm(ptr noundef nonnull align 4 dereferenceable(16) %0, ptr noundef %1, i64 noundef %2) #3 align 2 {
  %4 = alloca i64, align 8
  %5 = alloca ptr, align 8
  %6 = alloca ptr, align 8
  %7 = alloca i64, align 8
  %8 = alloca i64, align 8
  %9 = alloca i8, align 1
  %10 = alloca i32, align 4
  %11 = alloca i64, align 8
  %12 = alloca i64, align 8
  %13 = alloca i64, align 8
  %14 = alloca ptr, align 8
  %15 = alloca i64, align 8
  store ptr %0, ptr %5, align 8
  store ptr %1, ptr %6, align 8
  store i64 %2, ptr %7, align 8
  %16 = load ptr, ptr %5, align 8
  %17 = load ptr, ptr %6, align 8
  %18 = call i64 @strlen(ptr noundef %17) #12
  store i64 %18, ptr %8, align 8
  %19 = load i64, ptr %7, align 8
  %20 = icmp eq i64 %19, 0
  br i1 %20, label %29, label %21

21:                                               ; preds = %3
  %22 = load ptr, ptr %6, align 8
  %23 = load i64, ptr %7, align 8
  %24 = sub i64 %23, 1
  %25 = getelementptr inbounds i8, ptr %22, i64 %24
  %26 = load i8, ptr %25, align 1
  %27 = sext i8 %26 to i32
  %28 = icmp eq i32 %27, 10
  br label %29

29:                                               ; preds = %21, %3
  %30 = phi i1 [ true, %3 ], [ %28, %21 ]
  %31 = zext i1 %30 to i8
  store i8 %31, ptr %9, align 1
  %32 = load i8, ptr %9, align 1
  %33 = trunc i8 %32 to i1
  br i1 %33, label %47, label %34

34:                                               ; preds = %29
  %35 = load ptr, ptr %6, align 8
  %36 = load i64, ptr %7, align 8
  %37 = getelementptr inbounds i8, ptr %35, i64 %36
  %38 = call i64 @strspn(ptr noundef %37, ptr noundef @.str.6) #12
  %39 = load i64, ptr %7, align 8
  %40 = add i64 %39, %38
  store i64 %40, ptr %7, align 8
  %41 = load i64, ptr %7, align 8
  %42 = load i64, ptr %8, align 8
  %43 = icmp uge i64 %41, %42
  br i1 %43, label %44, label %46

44:                                               ; preds = %34
  %45 = load i64, ptr %8, align 8
  store i64 %45, ptr %4, align 8
  br label %135

46:                                               ; preds = %34
  br label %47

47:                                               ; preds = %46, %29
  %48 = load i8, ptr %9, align 1
  %49 = trunc i8 %48 to i1
  br i1 %49, label %50, label %53

50:                                               ; preds = %47
  %51 = getelementptr inbounds %"class.gmx::TextLineWrapper", ptr %16, i32 0, i32 0
  %52 = call noundef i32 @_ZNK3gmx23TextLineWrapperSettings15firstLineIndentEv(ptr noundef nonnull align 4 dereferenceable(14) %51)
  br label %56

53:                                               ; preds = %47
  %54 = getelementptr inbounds %"class.gmx::TextLineWrapper", ptr %16, i32 0, i32 0
  %55 = call noundef i32 @_ZNK3gmx23TextLineWrapperSettings6indentEv(ptr noundef nonnull align 4 dereferenceable(14) %54)
  br label %56

56:                                               ; preds = %53, %50
  %57 = phi i32 [ %52, %50 ], [ %55, %53 ]
  store i32 %57, ptr %10, align 4
  %58 = getelementptr inbounds %"class.gmx::TextLineWrapper", ptr %16, i32 0, i32 0
  %59 = call noundef i32 @_ZNK3gmx23TextLineWrapperSettings10lineLengthEv(ptr noundef nonnull align 4 dereferenceable(14) %58)
  %60 = icmp sgt i32 %59, 0
  br i1 %60, label %61, label %72

61:                                               ; preds = %56
  %62 = load i64, ptr %7, align 8
  %63 = getelementptr inbounds %"class.gmx::TextLineWrapper", ptr %16, i32 0, i32 0
  %64 = call noundef i32 @_ZNK3gmx23TextLineWrapperSettings10lineLengthEv(ptr noundef nonnull align 4 dereferenceable(14) %63)
  %65 = sext i32 %64 to i64
  %66 = add i64 %62, %65
  %67 = load i32, ptr %10, align 4
  %68 = sext i32 %67 to i64
  %69 = sub i64 %66, %68
  store i64 %69, ptr %12, align 8
  %70 = call noundef nonnull align 8 dereferenceable(8) ptr @_ZSt3minImERKT_S2_S2_(ptr noundef nonnull align 8 dereferenceable(8) %12, ptr noundef nonnull align 8 dereferenceable(8) %8)
  %71 = load i64, ptr %70, align 8
  br label %74

72:                                               ; preds = %56
  %73 = load i64, ptr %8, align 8
  br label %74

74:                                               ; preds = %72, %61
  %75 = phi i64 [ %71, %61 ], [ %73, %72 ]
  store i64 %75, ptr %11, align 8
  %76 = load ptr, ptr %6, align 8
  %77 = load i64, ptr %11, align 8
  %78 = getelementptr inbounds i8, ptr %76, i64 %77
  %79 = call i64 @strspn(ptr noundef %78, ptr noundef @.str.6) #12
  %80 = load i64, ptr %11, align 8
  %81 = add i64 %80, %79
  store i64 %81, ptr %11, align 8
  %82 = load i64, ptr %7, align 8
  store i64 %82, ptr %13, align 8
  br label %83

83:                                               ; preds = %123, %74
  %84 = load ptr, ptr %6, align 8
  %85 = load i64, ptr %13, align 8
  %86 = getelementptr inbounds i8, ptr %84, i64 %85
  %87 = call noundef ptr @strpbrk(ptr noundef %86, ptr noundef @.str.7) #12
  store ptr %87, ptr %14, align 8
  %88 = load ptr, ptr %14, align 8
  %89 = icmp ne ptr %88, null
  br i1 %89, label %90, label %96

90:                                               ; preds = %83
  %91 = load ptr, ptr %14, align 8
  %92 = load ptr, ptr %6, align 8
  %93 = ptrtoint ptr %91 to i64
  %94 = ptrtoint ptr %92 to i64
  %95 = sub i64 %93, %94
  br label %98

96:                                               ; preds = %83
  %97 = load i64, ptr %8, align 8
  br label %98

98:                                               ; preds = %96, %90
  %99 = phi i64 [ %95, %90 ], [ %97, %96 ]
  store i64 %99, ptr %15, align 8
  %100 = load i64, ptr %15, align 8
  %101 = load i64, ptr %11, align 8
  %102 = icmp ugt i64 %100, %101
  br i1 %102, label %103, label %108

103:                                              ; preds = %98
  %104 = load i64, ptr %13, align 8
  %105 = load i64, ptr %7, align 8
  %106 = icmp ugt i64 %104, %105
  br i1 %106, label %107, label %108

107:                                              ; preds = %103
  br label %125

108:                                              ; preds = %103, %98
  %109 = load i64, ptr %15, align 8
  %110 = add i64 %109, 1
  store i64 %110, ptr %13, align 8
  br label %111

111:                                              ; preds = %108
  %112 = load i64, ptr %13, align 8
  %113 = load i64, ptr %11, align 8
  %114 = icmp ult i64 %112, %113
  br i1 %114, label %115, label %123

115:                                              ; preds = %111
  %116 = load ptr, ptr %6, align 8
  %117 = load i64, ptr %13, align 8
  %118 = sub i64 %117, 1
  %119 = getelementptr inbounds i8, ptr %116, i64 %118
  %120 = load i8, ptr %119, align 1
  %121 = sext i8 %120 to i32
  %122 = icmp ne i32 %121, 10
  br label %123

123:                                              ; preds = %115, %111
  %124 = phi i1 [ false, %111 ], [ %122, %115 ]
  br i1 %124, label %83, label %125, !llvm.loop !23

125:                                              ; preds = %123, %107
  %126 = load i64, ptr %13, align 8
  %127 = load i64, ptr %8, align 8
  %128 = icmp ult i64 %126, %127
  br i1 %128, label %129, label %131

129:                                              ; preds = %125
  %130 = load i64, ptr %13, align 8
  br label %133

131:                                              ; preds = %125
  %132 = load i64, ptr %8, align 8
  br label %133

133:                                              ; preds = %131, %129
  %134 = phi i64 [ %130, %129 ], [ %132, %131 ]
  store i64 %134, ptr %4, align 8
  br label %135

135:                                              ; preds = %133, %44
  %136 = load i64, ptr %4, align 8
  ret i64 %136
}