; Function Attrs: mustprogress nofree nounwind willreturn memory(argmem: read) uwtable
define noundef i64 @_ZNK3gmx15TextLineWrapper12findNextLineEPKcm(ptr nocapture noundef nonnull readonly align 4 dereferenceable(16) %0, ptr noundef %1, i64 noundef %2) local_unnamed_addr #5 align 2 {
  %4 = tail call i64 @strlen(ptr noundef nonnull dereferenceable(1) %1) #21
  %5 = icmp eq i64 %2, 0
  br i1 %5, label %.thread, label %6

6:                                                ; preds = %3
  %7 = getelementptr i8, ptr %1, i64 %2
  %8 = getelementptr i8, ptr %7, i64 -1
  %9 = load i8, ptr %8, align 1
  %10 = icmp eq i8 %9, 10
  br i1 %10, label %.thread, label %11

11:                                               ; preds = %6
  %12 = tail call i64 @strspn(ptr noundef nonnull %7, ptr noundef nonnull @.str.6) #21
  %13 = add i64 %12, %2
  %.not = icmp ult i64 %13, %4
  br i1 %.not, label %20, label %53

.thread:                                          ; preds = %3, %6
  %14 = getelementptr inbounds i8, ptr %0, i64 8
  %15 = load i32, ptr %14, align 4
  %16 = getelementptr inbounds i8, ptr %0, i64 4
  %17 = load i32, ptr %16, align 4
  %18 = icmp slt i32 %15, 0
  %19 = select i1 %18, i32 %17, i32 %15
  br label %23

20:                                               ; preds = %11
  %21 = getelementptr inbounds i8, ptr %0, i64 4
  %22 = load i32, ptr %21, align 4
  br label %23

23:                                               ; preds = %20, %.thread
  %.03348 = phi i64 [ %2, %.thread ], [ %13, %20 ]
  %24 = phi i32 [ %19, %.thread ], [ %22, %20 ]
  %25 = load i32, ptr %0, align 4
  %26 = icmp sgt i32 %25, 0
  br i1 %26, label %27, label %32

27:                                               ; preds = %23
  %28 = zext nneg i32 %25 to i64
  %29 = sext i32 %24 to i64
  %30 = sub i64 %.03348, %29
  %31 = add i64 %30, %28
  %.pre = tail call i64 @llvm.umin.i64(i64 %4, i64 %31)
  br label %32

32:                                               ; preds = %23, %27
  %33 = phi i64 [ %.pre, %27 ], [ %4, %23 ]
  %34 = getelementptr inbounds i8, ptr %1, i64 %33
  %35 = tail call i64 @strspn(ptr noundef %34, ptr noundef nonnull @.str.6) #21
  %36 = add i64 %35, %33
  %37 = ptrtoint ptr %1 to i64
  br label %38

38:                                               ; preds = %49, %32
  %.034 = phi i64 [ %.03348, %32 ], [ %47, %49 ]
  %39 = getelementptr inbounds i8, ptr %1, i64 %.034
  %40 = tail call noundef ptr @strpbrk(ptr noundef %39, ptr noundef nonnull @.str.7) #21
  %.not40 = icmp eq ptr %40, null
  %41 = ptrtoint ptr %40 to i64
  %42 = sub i64 %41, %37
  %43 = select i1 %.not40, i64 %4, i64 %42
  %44 = icmp ugt i64 %43, %36
  %45 = icmp ugt i64 %.034, %.03348
  %or.cond = and i1 %45, %44
  br i1 %or.cond, label %.critedge, label %46

46:                                               ; preds = %38
  %47 = add i64 %43, 1
  %48 = icmp ult i64 %47, %36
  br i1 %48, label %49, label %.critedge

49:                                               ; preds = %46
  %50 = getelementptr inbounds i8, ptr %1, i64 %43
  %51 = load i8, ptr %50, align 1
  %.not41 = icmp eq i8 %51, 10
  br i1 %.not41, label %.critedge, label %38, !llvm.loop !23

.critedge:                                        ; preds = %38, %46, %49
  %.1 = phi i64 [ %47, %49 ], [ %47, %46 ], [ %.034, %38 ]
  %52 = tail call i64 @llvm.umin.i64(i64 %.1, i64 %4)
  br label %53

53:                                               ; preds = %11, %.critedge
  %.0 = phi i64 [ %52, %.critedge ], [ %4, %11 ]
  ret i64 %.0
}